target datalayout = "e-m:e-p270:32:32-p271:32:32-p272:64:64-i64:64-i128:128-f80:128-n8:16:32:64-S128"
target triple = "x86_64-pc-linux-gnu"

@proto_register_ua3g.ett = internal global [7 x ptr] [ptr @ett_ua3g, ptr @ett_ua3g_body, ptr @ett_ua3g_param, ptr @ett_ua3g_param_sub, ptr @ett_ua3g_option, ptr @ett_ua3g_beep_beep_destination, ptr @ett_ua3g_note], align 16
@.str.651 = private unnamed_addr constant [13 x i8] c"UA3G Message\00", align 1
@.str.652 = private unnamed_addr constant [5 x i8] c"UA3G\00", align 1
@.str.653 = private unnamed_addr constant [5 x i8] c"ua3g\00", align 1
@proto_ua3g = internal global i32 0, align 4
@.str.654 = private unnamed_addr constant [20 x i8] c"setup_conversations\00", align 1
@.str.655 = private unnamed_addr constant [49 x i8] c"Setup RTP/RTCP conversations on Start/Record RTP\00", align 1
@.str.656 = private unnamed_addr constant [68 x i8] c"Setup RTP/RTCP conversations when parsing Start/Record RTP messages\00", align 1
@setup_conversations_enabled = internal global i8 1, align 1

; Function Attrs: null_pointer_is_valid sspstrong uwtable
define hidden void @proto_register_ua3g() #0 {
  %1 = alloca ptr, align 8
  call void @llvm.lifetime.start.p0(i64 8, ptr %1) #8
  %2 = call i32 @proto_register_protocol(ptr noundef @.str.651, ptr noundef @.str.652, ptr noundef @.str.653)
  store i32 %2, ptr @proto_ua3g, align 4
  %3 = load i32, ptr @proto_ua3g, align 4
  %4 = call ptr @prefs_register_protocol(i32 noundef %3, ptr noundef null)
  store ptr %4, ptr %1, align 8
  %5 = load ptr, ptr %1, align 8
  call void @prefs_register_bool_preference(ptr noundef %5, ptr noundef @.str.654, ptr noundef @.str.655, ptr noundef @.str.656, ptr noundef @setup_conversations_enabled)
  %6 = load i32, ptr @proto_ua3g, align 4
  call void @proto_register_field_array(i32 noundef %6, ptr noundef @proto_register_ua3g.hf, i32 noundef 374)
  %7 = load i32, ptr @proto_ua3g, align 4
  %8 = call ptr @register_dissector(ptr noundef @.str.653, ptr noundef @dissect_ua3g, i32 noundef %7)
  call void @proto_register_subtree_array(ptr noundef @proto_register_ua3g.ett, i32 noundef 7)
  call void @llvm.lifetime.end.p0(i64 8, ptr %1) #8
  ret void
}