; Function Attrs: null_pointer_is_valid sspstrong uwtable
define hidden void @proto_register_ua3g() local_unnamed_addr #0 {
  %1 = tail call i32 @proto_register_protocol(ptr noundef nonnull @.str.651, ptr noundef nonnull @.str.652, ptr noundef nonnull @.str.653)
  store i32 %1, ptr @proto_ua3g, align 4
  %2 = tail call ptr @prefs_register_protocol(i32 noundef %1, ptr noundef null)
  tail call void @prefs_register_bool_preference(ptr noundef %2, ptr noundef nonnull @.str.654, ptr noundef nonnull @.str.655, ptr noundef nonnull @.str.656, ptr noundef nonnull @setup_conversations_enabled)
  %3 = load i32, ptr @proto_ua3g, align 4
  tail call void @proto_register_field_array(i32 noundef %3, ptr noundef nonnull @proto_register_ua3g.hf, i32 noundef 374)
  %4 = load i32, ptr @proto_ua3g, align 4
  %5 = tail call ptr @register_dissector(ptr noundef nonnull @.str.653, ptr noundef nonnull @dissect_ua3g, i32 noundef %4)
  tail call void @proto_register_subtree_array(ptr noundef nonnull @proto_register_ua3g.ett, i32 noundef 7)
  ret void
}